; Function Attrs: mustprogress uwtable
define internal fastcc void @_ZN5arrow12_GLOBAL__N_113ArrayImporter15CheckNumBuffersEl(ptr noalias align 8 %agg.result, ptr nocapture noundef nonnull readonly align 8 dereferenceable(113) %this, i64 noundef %n_buffers) unnamed_addr #0 align 2 personality ptr @__gxx_personality_v0 {
entry:
  %ref.tmp.i.i = alloca %"class.std::__cxx11::basic_string", align 8
  %n_buffers.addr = alloca i64, align 8
  %ref.tmp = alloca %"class.std::__cxx11::basic_string", align 8
  store i64 %n_buffers, ptr %n_buffers.addr, align 8
  %0 = load ptr, ptr %this, align 8
  %n_buffers2 = getelementptr inbounds i8, ptr %0, i64 24
  %1 = load i64, ptr %n_buffers2, align 8
  %cmp.not = icmp eq i64 %1, %n_buffers
  br i1 %cmp.not, label %if.end, label %if.then

if.then:                                          ; preds = %entry
  %type_ = getelementptr inbounds i8, ptr %this, i64 16
  %2 = load ptr, ptr %type_, align 8
  %3 = load ptr, ptr %2, align 8
  %vtable = load ptr, ptr %3, align 8
  %vfn = getelementptr inbounds i8, ptr %vtable, i64 32
  %4 = load ptr, ptr %vfn, align 8
  call void %4(ptr nonnull sret(%"class.std::__cxx11::basic_string") align 8 %ref.tmp, ptr noundef nonnull align 8 dereferenceable(72) %3)
  %5 = load ptr, ptr %this, align 8
  %n_buffers4 = getelementptr inbounds i8, ptr %5, i64 24
  call void @llvm.lifetime.start.p0(i64 32, ptr nonnull %ref.tmp.i.i), !noalias !2291
  invoke void @_ZN5arrow4util13StringBuilderIJRA10_KcRlRA28_S2_NSt7__cxx1112basic_stringIcSt11char_traitsIcESaIcEEERA25_S2_S5_EEESD_DpOT_(ptr nonnull sret(%"class.std::__cxx11::basic_string") align 8 %ref.tmp.i.i, ptr noundef nonnull align 1 dereferenceable(10) @.str.79, ptr noundef nonnull align 8 dereferenceable(8) %n_buffers.addr, ptr noundef nonnull align 1 dereferenceable(28) @.str.109, ptr noundef nonnull align 8 dereferenceable(32) %ref.tmp, ptr noundef nonnull align 1 dereferenceable(25) @.str.81, ptr noundef nonnull align 8 dereferenceable(8) %n_buffers4)
          to label %.noexc unwind label %lpad

.noexc:                                           ; preds = %if.then
  invoke void @_ZN5arrow6StatusC1ENS_10StatusCodeERKNSt7__cxx1112basic_stringIcSt11char_traitsIcESaIcEEE(ptr noundef nonnull align 8 dereferenceable(8) %agg.result, i8 noundef signext 4, ptr noundef nonnull align 8 dereferenceable(32) %ref.tmp.i.i)
          to label %invoke.cont unwind label %lpad.i.i

lpad.i.i:                                         ; preds = %.noexc
  %6 = landingpad { ptr, i32 }
          cleanup
  call void @_ZNSt7__cxx1112basic_stringIcSt11char_traitsIcESaIcEED1Ev(ptr noundef nonnull align 8 dereferenceable(32) %ref.tmp.i.i) #24
  br label %lpad.body

invoke.cont:                                      ; preds = %.noexc
  call void @_ZNSt7__cxx1112basic_stringIcSt11char_traitsIcESaIcEED1Ev(ptr noundef nonnull align 8 dereferenceable(32) %ref.tmp.i.i) #24
  call void @llvm.lifetime.end.p0(i64 32, ptr nonnull %ref.tmp.i.i), !noalias !2291
  call void @_ZNSt7__cxx1112basic_stringIcSt11char_traitsIcESaIcEED1Ev(ptr noundef nonnull align 8 dereferenceable(32) %ref.tmp) #24
  br label %return

lpad:                                             ; preds = %if.then
  %7 = landingpad { ptr, i32 }
          cleanup
  br label %lpad.body

lpad.body:                                        ; preds = %lpad.i.i, %lpad
  %eh.lpad-body = phi { ptr, i32 } [ %7, %lpad ], [ %6, %lpad.i.i ]
  call void @_ZNSt7__cxx1112basic_stringIcSt11char_traitsIcESaIcEED1Ev(ptr noundef nonnull align 8 dereferenceable(32) %ref.tmp) #24
  resume { ptr, i32 } %eh.lpad-body

if.end:                                           ; preds = %entry
  store ptr null, ptr %agg.result, align 8, !alias.scope !2294
  br label %return

return:                                           ; preds = %if.end, %invoke.cont
  ret void
}